target datalayout = "e-m:e-p270:32:32-p271:32:32-p272:64:64-i64:64-i128:128-f80:128-n8:16:32:64-S128"
target triple = "x86_64-pc-linux-gnu"

%struct.MonitorInfo = type { i32, [4 x i8], i32, i32, i32, i32, i32, i32, i32, i32, %union.anon.5, i32, i32, double, double, i32, i32, i32, i32, i32, i32, double, double, double, double, double, double, double, double, [24 x %struct.Timing], [8 x %struct.Timing], i32, [4 x %struct.DetailedTiming], [14 x i8], [14 x i8], [14 x i8] }
%union.anon.5 = type { %struct.anon.7 }
%struct.anon.7 = type { double, double, double, i32, i32, i32, i32, i32, i32 }
%struct.Timing = type { i32, i32, i32 }
%struct.DetailedTiming = type { i32, i32, i32, i32, i32, i32, i32, i32, i32, i32, i32, i32, i32, i32, i32, i32, %union.anon.8 }
%union.anon.8 = type { %struct.anon.10 }
%struct.anon.10 = type { i32, i32, i32, i32 }

@X11_XFree = external global ptr, align 8
@X11_XRRListOutputProperties = external global ptr, align 8
@X11_XRRGetOutputProperty = external global ptr, align 8
@.str.7 = private unnamed_addr constant [5 x i8] c" %d\22\00", align 1

; Function Attrs: nounwind uwtable
define internal void @SetXRandRDisplayName(ptr noundef %0, i64 noundef %1, ptr noundef %2, i64 noundef %3, i64 noundef %4, i64 noundef %5, i64 noundef %6) #0 {
  %8 = alloca ptr, align 8
  %9 = alloca i64, align 8
  %10 = alloca ptr, align 8
  %11 = alloca i64, align 8
  %12 = alloca i64, align 8
  %13 = alloca i64, align 8
  %14 = alloca i64, align 8
  %15 = alloca i32, align 4
  %16 = alloca i32, align 4
  %17 = alloca ptr, align 8
  %18 = alloca i32, align 4
  %19 = alloca ptr, align 8
  %20 = alloca i32, align 4
  %21 = alloca i64, align 8
  %22 = alloca i64, align 8
  %23 = alloca i64, align 8
  %24 = alloca ptr, align 8
  %25 = alloca i32, align 4
  %26 = alloca i64, align 8
  store ptr %0, ptr %8, align 8
  store i64 %1, ptr %9, align 8
  store ptr %2, ptr %10, align 8
  store i64 %3, ptr %11, align 8
  store i64 %4, ptr %12, align 8
  store i64 %5, ptr %13, align 8
  store i64 %6, ptr %14, align 8
  call void @llvm.lifetime.start.p0(i64 4, ptr %15) #6
  call void @llvm.lifetime.start.p0(i64 4, ptr %16) #6
  call void @llvm.lifetime.start.p0(i64 8, ptr %17) #6
  %27 = load ptr, ptr @X11_XRRListOutputProperties, align 8
  %28 = load ptr, ptr %8, align 8
  %29 = load i64, ptr %12, align 8
  %30 = call ptr %27(ptr noundef %28, i64 noundef %29, ptr noundef %16)
  store ptr %30, ptr %17, align 8
  call void @llvm.lifetime.start.p0(i64 4, ptr %18) #6
  store i32 0, ptr %18, align 4
  br label %31

31:                                               ; preds = %76, %7
  %32 = load i32, ptr %18, align 4
  %33 = load i32, ptr %16, align 4
  %34 = icmp slt i32 %32, %33
  br i1 %34, label %35, label %79

35:                                               ; preds = %31
  call void @llvm.lifetime.start.p0(i64 8, ptr %19) #6
  call void @llvm.lifetime.start.p0(i64 4, ptr %20) #6
  call void @llvm.lifetime.start.p0(i64 8, ptr %21) #6
  call void @llvm.lifetime.start.p0(i64 8, ptr %22) #6
  call void @llvm.lifetime.start.p0(i64 8, ptr %23) #6
  %36 = load ptr, ptr %17, align 8
  %37 = load i32, ptr %18, align 4
  %38 = sext i32 %37 to i64
  %39 = getelementptr inbounds i64, ptr %36, i64 %38
  %40 = load i64, ptr %39, align 8
  %41 = load i64, ptr %9, align 8
  %42 = icmp eq i64 %40, %41
  br i1 %42, label %43, label %72

43:                                               ; preds = %35
  %44 = load ptr, ptr @X11_XRRGetOutputProperty, align 8
  %45 = load ptr, ptr %8, align 8
  %46 = load i64, ptr %12, align 8
  %47 = load ptr, ptr %17, align 8
  %48 = load i32, ptr %18, align 4
  %49 = sext i32 %48 to i64
  %50 = getelementptr inbounds i64, ptr %47, i64 %49
  %51 = load i64, ptr %50, align 8
  %52 = call i32 %44(ptr noundef %45, i64 noundef %46, i64 noundef %51, i64 noundef 0, i64 noundef 100, i32 noundef 0, i32 noundef 0, i64 noundef 0, ptr noundef %23, ptr noundef %20, ptr noundef %21, ptr noundef %22, ptr noundef %19)
  %53 = icmp eq i32 %52, 0
  br i1 %53, label %54, label %71

54:                                               ; preds = %43
  call void @llvm.lifetime.start.p0(i64 8, ptr %24) #6
  %55 = load ptr, ptr %19, align 8
  %56 = call ptr @decode_edid(ptr noundef %55)
  store ptr %56, ptr %24, align 8
  %57 = load ptr, ptr %24, align 8
  %58 = icmp ne ptr %57, null
  br i1 %58, label %59, label %67

59:                                               ; preds = %54
  %60 = load ptr, ptr %10, align 8
  %61 = load ptr, ptr %24, align 8
  %62 = getelementptr inbounds nuw %struct.MonitorInfo, ptr %61, i32 0, i32 34
  %63 = getelementptr inbounds [14 x i8], ptr %62, i64 0, i64 0
  %64 = load i64, ptr %11, align 8
  %65 = call i64 @SDL_strlcpy_REAL(ptr noundef %60, ptr noundef %63, i64 noundef %64)
  %66 = load ptr, ptr %24, align 8
  call void @SDL_free_REAL(ptr noundef %66)
  br label %67

67:                                               ; preds = %59, %54
  %68 = load ptr, ptr @X11_XFree, align 8
  %69 = load ptr, ptr %19, align 8
  %70 = call i32 %68(ptr noundef %69)
  call void @llvm.lifetime.end.p0(i64 8, ptr %24) #6
  br label %71

71:                                               ; preds = %67, %43
  store i32 2, ptr %25, align 4
  br label %73

72:                                               ; preds = %35
  store i32 0, ptr %25, align 4
  br label %73

73:                                               ; preds = %72, %71
  call void @llvm.lifetime.end.p0(i64 8, ptr %23) #6
  call void @llvm.lifetime.end.p0(i64 8, ptr %22) #6
  call void @llvm.lifetime.end.p0(i64 8, ptr %21) #6
  call void @llvm.lifetime.end.p0(i64 4, ptr %20) #6
  call void @llvm.lifetime.end.p0(i64 8, ptr %19) #6
  %74 = load i32, ptr %25, align 4
  switch i32 %74, label %118 [
    i32 0, label %75
    i32 2, label %79
  ]

75:                                               ; preds = %73
  br label %76

76:                                               ; preds = %75
  %77 = load i32, ptr %18, align 4
  %78 = add nsw i32 %77, 1
  store i32 %78, ptr %18, align 4
  br label %31, !llvm.loop !21

79:                                               ; preds = %73, %31
  %80 = load ptr, ptr %17, align 8
  %81 = icmp ne ptr %80, null
  br i1 %81, label %82, label %86

82:                                               ; preds = %79
  %83 = load ptr, ptr @X11_XFree, align 8
  %84 = load ptr, ptr %17, align 8
  %85 = call i32 %83(ptr noundef %84)
  br label %86

86:                                               ; preds = %82, %79
  %87 = load i64, ptr %13, align 8
  %88 = load i64, ptr %13, align 8
  %89 = mul i64 %87, %88
  %90 = load i64, ptr %14, align 8
  %91 = load i64, ptr %14, align 8
  %92 = mul i64 %90, %91
  %93 = add i64 %89, %92
  %94 = uitofp i64 %93 to float
  %95 = call float @SDL_sqrtf_REAL(float noundef %94)
  %96 = fdiv float %95, 0x4039666660000000
  %97 = fadd float %96, 5.000000e-01
  %98 = fptosi float %97 to i32
  store i32 %98, ptr %15, align 4
  %99 = load ptr, ptr %10, align 8
  %100 = load i8, ptr %99, align 1
  %101 = sext i8 %100 to i32
  %102 = icmp ne i32 %101, 0
  br i1 %102, label %103, label %117

103:                                              ; preds = %86
  %104 = load i32, ptr %15, align 4
  %105 = icmp ne i32 %104, 0
  br i1 %105, label %106, label %117

106:                                              ; preds = %103
  call void @llvm.lifetime.start.p0(i64 8, ptr %26) #6
  %107 = load ptr, ptr %10, align 8
  %108 = call i64 @SDL_strlen_REAL(ptr noundef %107)
  store i64 %108, ptr %26, align 8
  %109 = load ptr, ptr %10, align 8
  %110 = load i64, ptr %26, align 8
  %111 = getelementptr inbounds nuw i8, ptr %109, i64 %110
  %112 = load i64, ptr %11, align 8
  %113 = load i64, ptr %26, align 8
  %114 = sub i64 %112, %113
  %115 = load i32, ptr %15, align 4
  %116 = call i32 (ptr, i64, ptr, ...) @SDL_snprintf_REAL(ptr noundef %111, i64 noundef %114, ptr noundef @.str.7, i32 noundef %115)
  call void @llvm.lifetime.end.p0(i64 8, ptr %26) #6
  br label %117

117:                                              ; preds = %106, %103, %86
  call void @llvm.lifetime.end.p0(i64 4, ptr %18) #6
  call void @llvm.lifetime.end.p0(i64 8, ptr %17) #6
  call void @llvm.lifetime.end.p0(i64 4, ptr %16) #6
  call void @llvm.lifetime.end.p0(i64 4, ptr %15) #6
  ret void

118:                                              ; preds = %73
  unreachable
}