; Function Attrs: nounwind uwtable
define internal fastcc void @SetXRandRDisplayName(ptr noundef %0, i64 noundef %1, ptr noundef nonnull %2, i64 noundef %3, i64 noundef %4, i64 noundef %5) unnamed_addr #0 {
  %7 = alloca i32, align 4
  %8 = alloca ptr, align 8
  %9 = alloca i32, align 4
  %10 = alloca i64, align 8
  %11 = alloca i64, align 8
  %12 = alloca i64, align 8
  call void @llvm.lifetime.start.p0(i64 4, ptr nonnull %7) #8
  %13 = load ptr, ptr @X11_XRRListOutputProperties, align 8
  %14 = call ptr %13(ptr noundef %0, i64 noundef %3, ptr noundef nonnull %7) #8
  %15 = load i32, ptr %7, align 4
  %16 = icmp sgt i32 %15, 0
  br i1 %16, label %.lr.ph.preheader, label %._crit_edge

.lr.ph.preheader:                                 ; preds = %6
  %wide.trip.count = zext nneg i32 %15 to i64
  br label %.lr.ph

.lr.ph:                                           ; preds = %.lr.ph.preheader, %34
  %indvars.iv = phi i64 [ 0, %.lr.ph.preheader ], [ %indvars.iv.next, %34 ]
  call void @llvm.lifetime.start.p0(i64 8, ptr nonnull %8) #8
  call void @llvm.lifetime.start.p0(i64 4, ptr nonnull %9) #8
  call void @llvm.lifetime.start.p0(i64 8, ptr nonnull %10) #8
  call void @llvm.lifetime.start.p0(i64 8, ptr nonnull %11) #8
  call void @llvm.lifetime.start.p0(i64 8, ptr nonnull %12) #8
  %17 = getelementptr inbounds nuw i64, ptr %14, i64 %indvars.iv
  %18 = load i64, ptr %17, align 8
  %19 = icmp eq i64 %18, %1
  br i1 %19, label %20, label %34

20:                                               ; preds = %.lr.ph
  %21 = load ptr, ptr @X11_XRRGetOutputProperty, align 8
  %22 = call i32 %21(ptr noundef %0, i64 noundef %3, i64 noundef %1, i64 noundef 0, i64 noundef 100, i32 noundef 0, i32 noundef 0, i64 noundef 0, ptr noundef nonnull %12, ptr noundef nonnull %9, ptr noundef nonnull %10, ptr noundef nonnull %11, ptr noundef nonnull %8) #8
  %23 = icmp eq i32 %22, 0
  br i1 %23, label %24, label %.thread39

24:                                               ; preds = %20
  %25 = load ptr, ptr %8, align 8
  %26 = call ptr @decode_edid(ptr noundef %25) #8
  %.not = icmp eq ptr %26, null
  br i1 %.not, label %30, label %27

27:                                               ; preds = %24
  %28 = getelementptr inbounds nuw i8, ptr %26, i64 922
  %29 = call i64 @SDL_strlcpy_REAL(ptr noundef nonnull %2, ptr noundef nonnull %28, i64 noundef 128) #8
  call void @SDL_free_REAL(ptr noundef nonnull %26) #8
  br label %30

30:                                               ; preds = %27, %24
  %31 = load ptr, ptr @X11_XFree, align 8
  %32 = load ptr, ptr %8, align 8
  %33 = call i32 %31(ptr noundef %32) #8
  br label %.thread39

.thread39:                                        ; preds = %20, %30
  call void @llvm.lifetime.end.p0(i64 8, ptr nonnull %12) #8
  call void @llvm.lifetime.end.p0(i64 8, ptr nonnull %11) #8
  call void @llvm.lifetime.end.p0(i64 8, ptr nonnull %10) #8
  call void @llvm.lifetime.end.p0(i64 4, ptr nonnull %9) #8
  call void @llvm.lifetime.end.p0(i64 8, ptr nonnull %8) #8
  br label %._crit_edge.thread

34:                                               ; preds = %.lr.ph
  call void @llvm.lifetime.end.p0(i64 8, ptr nonnull %12) #8
  call void @llvm.lifetime.end.p0(i64 8, ptr nonnull %11) #8
  call void @llvm.lifetime.end.p0(i64 8, ptr nonnull %10) #8
  call void @llvm.lifetime.end.p0(i64 4, ptr nonnull %9) #8
  call void @llvm.lifetime.end.p0(i64 8, ptr nonnull %8) #8
  %indvars.iv.next = add nuw nsw i64 %indvars.iv, 1
  %exitcond.not = icmp eq i64 %indvars.iv.next, %wide.trip.count
  br i1 %exitcond.not, label %._crit_edge.thread, label %.lr.ph, !llvm.loop !25

._crit_edge:                                      ; preds = %6
  %.not36 = icmp eq ptr %14, null
  br i1 %.not36, label %37, label %._crit_edge.thread

._crit_edge.thread:                               ; preds = %34, %.thread39, %._crit_edge
  %35 = load ptr, ptr @X11_XFree, align 8
  %36 = call i32 %35(ptr noundef nonnull %14) #8
  br label %37

37:                                               ; preds = %._crit_edge.thread, %._crit_edge
  %38 = mul i64 %4, %4
  %39 = mul i64 %5, %5
  %40 = add i64 %39, %38
  %41 = uitofp i64 %40 to float
  %42 = call float @SDL_sqrtf_REAL(float noundef %41) #8
  %43 = fdiv float %42, 0x4039666660000000
  %44 = fadd float %43, 5.000000e-01
  %45 = fptosi float %44 to i32
  %46 = load i8, ptr %2, align 1
  %47 = icmp ne i8 %46, 0
  %48 = icmp ne i32 %45, 0
  %or.cond = select i1 %47, i1 %48, i1 false
  br i1 %or.cond, label %49, label %54

49:                                               ; preds = %37
  %50 = call i64 @SDL_strlen_REAL(ptr noundef nonnull %2) #8
  %51 = getelementptr inbounds nuw i8, ptr %2, i64 %50
  %52 = sub i64 128, %50
  %53 = call i32 (ptr, i64, ptr, ...) @SDL_snprintf_REAL(ptr noundef nonnull %51, i64 noundef %52, ptr noundef nonnull @.str.7, i32 noundef %45) #8
  br label %54

54:                                               ; preds = %49, %37
  call void @llvm.lifetime.end.p0(i64 4, ptr nonnull %7) #8
  ret void
}